target datalayout = "e-m:e-p270:32:32-p271:32:32-p272:64:64-i64:64-i128:128-f80:128-n8:16:32:64-S128"
target triple = "x86_64-pc-linux-gnu"

%"class.OpenImageIO::v3_1_0::Image_or_Const" = type { i32, ptr, %"class.OpenImageIO::v3_1_0::span" }
%"class.OpenImageIO::v3_1_0::span" = type { ptr, i64 }
%"struct.OpenImageIO::v3_1_0::ROI" = type { i32, i32, i32, i32, i32, i32, i32, i32 }
%"class.OpenImageIO::v3_1_0::ImageBuf" = type { %"class.std::unique_ptr" }
%"class.std::unique_ptr" = type { %"struct.std::__uniq_ptr_data" }
%"struct.std::__uniq_ptr_data" = type { %"class.std::__uniq_ptr_impl" }
%"class.std::__uniq_ptr_impl" = type { %"class.std::tuple" }
%"class.std::tuple" = type { %"struct.std::_Tuple_impl" }
%"struct.std::_Tuple_impl" = type { %"struct.std::_Tuple_impl.1", %"struct.std::_Head_base.2" }
%"struct.std::_Tuple_impl.1" = type { %"struct.std::_Head_base" }
%"struct.std::_Head_base" = type { ptr }
%"struct.std::_Head_base.2" = type { ptr }

@.str.8 = private unnamed_addr constant [26 x i8] c"ImageBufAlgo::mad() error\00", align 1

; Function Attrs: mustprogress uwtable
define void @_ZN11OpenImageIO6v3_1_012ImageBufAlgo3madENS0_14Image_or_ConstES2_S2_NS0_3ROIEi(ptr dead_on_unwind noalias writable sret(%"class.OpenImageIO::v3_1_0::ImageBuf") align 8 %0, ptr noundef byval(%"class.OpenImageIO::v3_1_0::Image_or_Const") align 8 %1, ptr noundef byval(%"class.OpenImageIO::v3_1_0::Image_or_Const") align 8 %2, ptr noundef byval(%"class.OpenImageIO::v3_1_0::Image_or_Const") align 8 %3, ptr noundef byval(%"struct.OpenImageIO::v3_1_0::ROI") align 8 %4, i32 noundef %5) #6 personality ptr @__gxx_personality_v0 {
  %7 = alloca ptr, align 8
  %8 = alloca i32, align 4
  %9 = alloca i1, align 1
  %10 = alloca i8, align 1
  %11 = alloca %"class.OpenImageIO::v3_1_0::Image_or_Const", align 8
  %12 = alloca %"class.OpenImageIO::v3_1_0::Image_or_Const", align 8
  %13 = alloca %"class.OpenImageIO::v3_1_0::Image_or_Const", align 8
  %14 = alloca %"struct.OpenImageIO::v3_1_0::ROI", align 8
  %15 = alloca ptr, align 8
  %16 = alloca i32, align 4
  store ptr %0, ptr %7, align 8
  store i32 %5, ptr %8, align 4, !tbaa !10
  store i1 false, ptr %9, align 1
  call void @_ZN11OpenImageIO6v3_1_08ImageBufC1Ev(ptr noundef nonnull align 8 dereferenceable(16) %0)
  call void @llvm.lifetime.start.p0(i64 1, ptr %10) #3
  call void @llvm.memcpy.p0.p0.i64(ptr align 8 %11, ptr align 8 %1, i64 32, i1 false), !tbaa.struct !73
  call void @llvm.memcpy.p0.p0.i64(ptr align 8 %12, ptr align 8 %2, i64 32, i1 false), !tbaa.struct !73
  call void @llvm.memcpy.p0.p0.i64(ptr align 8 %13, ptr align 8 %3, i64 32, i1 false), !tbaa.struct !73
  call void @llvm.memcpy.p0.p0.i64(ptr align 4 %14, ptr align 8 %4, i64 32, i1 false), !tbaa.struct !20
  %17 = load i32, ptr %8, align 4, !tbaa !10
  %18 = invoke noundef zeroext i1 @_ZN11OpenImageIO6v3_1_012ImageBufAlgo3madERNS0_8ImageBufENS0_14Image_or_ConstES4_S4_NS0_3ROIEi(ptr noundef nonnull align 8 dereferenceable(16) %0, ptr noundef byval(%"class.OpenImageIO::v3_1_0::Image_or_Const") align 8 %11, ptr noundef byval(%"class.OpenImageIO::v3_1_0::Image_or_Const") align 8 %12, ptr noundef byval(%"class.OpenImageIO::v3_1_0::Image_or_Const") align 8 %13, ptr noundef byval(%"struct.OpenImageIO::v3_1_0::ROI") align 8 %14, i32 noundef %17)
          to label %19 unwind label %28

19:                                               ; preds = %6
  %20 = zext i1 %18 to i8
  store i8 %20, ptr %10, align 1, !tbaa !16
  %21 = load i8, ptr %10, align 1, !tbaa !16, !range !21, !noundef !22
  %22 = trunc i8 %21 to i1
  br i1 %22, label %32, label %23

23:                                               ; preds = %19
  %24 = invoke noundef zeroext i1 @_ZNK11OpenImageIO6v3_1_08ImageBuf9has_errorEv(ptr noundef nonnull align 8 dereferenceable(16) %0)
          to label %25 unwind label %28

25:                                               ; preds = %23
  br i1 %24, label %32, label %26

26:                                               ; preds = %25
  invoke void @_ZNK11OpenImageIO6v3_1_08ImageBuf8errorfmtIA26_cJEEEvRKT_DpOT0_(ptr noundef nonnull align 8 dereferenceable(16) %0, ptr noundef nonnull align 1 dereferenceable(26) @.str.8)
          to label %27 unwind label %28

27:                                               ; preds = %26
  br label %32

28:                                               ; preds = %26, %23, %6
  %29 = landingpad { ptr, i32 }
          cleanup
  %30 = extractvalue { ptr, i32 } %29, 0
  store ptr %30, ptr %15, align 8
  %31 = extractvalue { ptr, i32 } %29, 1
  store i32 %31, ptr %16, align 4
  call void @llvm.lifetime.end.p0(i64 1, ptr %10) #3
  call void @_ZN11OpenImageIO6v3_1_08ImageBufD1Ev(ptr noundef nonnull align 8 dereferenceable(16) %0) #3
  br label %36

32:                                               ; preds = %27, %25, %19
  store i1 true, ptr %9, align 1
  call void @llvm.lifetime.end.p0(i64 1, ptr %10) #3
  %33 = load i1, ptr %9, align 1
  br i1 %33, label %35, label %34

34:                                               ; preds = %32
  call void @_ZN11OpenImageIO6v3_1_08ImageBufD1Ev(ptr noundef nonnull align 8 dereferenceable(16) %0) #3
  br label %35

35:                                               ; preds = %34, %32
  ret void

36:                                               ; preds = %28
  %37 = load ptr, ptr %15, align 8
  %38 = load i32, ptr %16, align 4
  %39 = insertvalue { ptr, i32 } poison, ptr %37, 0
  %40 = insertvalue { ptr, i32 } %39, i32 %38, 1
  resume { ptr, i32 } %40
}